; Function Attrs: nounwind uwtable
define internal range(i32 -12, 1) i32 @lmlm4_read_header(ptr noundef %0) #1 {
  %2 = tail call ptr @avformat_new_stream(ptr noundef %0, ptr noundef null) #4
  %.not = icmp eq ptr %2, null
  br i1 %.not, label %14, label %3

3:                                                ; preds = %1
  %4 = getelementptr inbounds nuw i8, ptr %2, i64 16
  %5 = load ptr, ptr %4, align 8, !tbaa !12
  store i32 0, ptr %5, align 8, !tbaa !22
  %6 = getelementptr inbounds nuw i8, ptr %5, i64 4
  store i32 12, ptr %6, align 4, !tbaa !25
  %7 = getelementptr inbounds nuw i8, ptr %2, i64 808
  store i32 2, ptr %7, align 8, !tbaa !26
  tail call void @avpriv_set_pts_info(ptr noundef nonnull %2, i32 noundef 64, i32 noundef 1001, i32 noundef 30000) #4
  %8 = tail call ptr @avformat_new_stream(ptr noundef %0, ptr noundef null) #4
  %.not11 = icmp eq ptr %8, null
  br i1 %.not11, label %14, label %9

9:                                                ; preds = %3
  %10 = getelementptr inbounds nuw i8, ptr %8, i64 16
  %11 = load ptr, ptr %10, align 8, !tbaa !12
  store i32 1, ptr %11, align 8, !tbaa !22
  %12 = getelementptr inbounds nuw i8, ptr %11, i64 4
  store i32 86016, ptr %12, align 4, !tbaa !25
  %13 = getelementptr inbounds nuw i8, ptr %8, i64 808
  store i32 2, ptr %13, align 8, !tbaa !26
  br label %14

14:                                               ; preds = %3, %1, %9
  %.0 = phi i32 [ 0, %9 ], [ -12, %1 ], [ -12, %3 ]
  ret i32 %.0
}